; Function Attrs: mustprogress nounwind uwtable
define dso_local noundef zeroext i1 @_ZNK3net14QuicSpdyStream23FinishedReadingTrailersEv(ptr noundef nonnull align 8 dereferenceable(664) %this) local_unnamed_addr #3 align 2 {
entry:
  %fin_received_.i = getelementptr inbounds i8, ptr %this, i64 260
  %0 = load i8, ptr %fin_received_.i, align 4
  %1 = and i8 %0, 1
  %tobool.i.not = icmp eq i8 %1, 0
  br i1 %tobool.i.not, label %return, label %if.else

if.else:                                          ; preds = %entry
  %trailers_decompressed_ = getelementptr inbounds i8, ptr %this, i64 536
  %2 = load i8, ptr %trailers_decompressed_, align 8
  %3 = and i8 %2, 1
  %tobool.not = icmp eq i8 %3, 0
  br i1 %tobool.not, label %return, label %if.else3

if.else3:                                         ; preds = %if.else
  %trailers_delivered_ = getelementptr inbounds i8, ptr %this, i64 537
  %4 = load i8, ptr %trailers_delivered_, align 1
  %5 = and i8 %4, 1
  %tobool4.not = icmp eq i8 %5, 0
  br i1 %tobool4.not, label %return, label %land.rhs

land.rhs:                                         ; preds = %if.else3
  %decompressed_trailers_ = getelementptr inbounds i8, ptr %this, i64 544
  %call5 = tail call noundef zeroext i1 @_ZNKSt7__cxx1112basic_stringIcSt11char_traitsIcESaIcEE5emptyEv(ptr noundef nonnull align 8 dereferenceable(32) %decompressed_trailers_) #12
  br label %return

return:                                           ; preds = %if.else3, %land.rhs, %if.else, %entry
  %retval.0 = phi i1 [ false, %entry ], [ true, %if.else ], [ false, %if.else3 ], [ %call5, %land.rhs ]
  ret i1 %retval.0
}